target datalayout = "e-m:e-p270:32:32-p271:32:32-p272:64:64-i64:64-i128:128-f80:128-n8:16:32:64-S128"
target triple = "x86_64-pc-linux-gnu"

%struct.node_record = type { ptr, ptr, i16, i64, i64, ptr, ptr, ptr, i16, ptr, i16, i16, i32, i32, i64, ptr, i16, i16, ptr, ptr, ptr, ptr, ptr, i64, i64, ptr, ptr, ptr, ptr, i32, ptr, ptr, i64, i64, i32, ptr, i64, ptr, i32, i16, ptr, ptr, i32, ptr, i32, i8, ptr, i32, i16, i16, ptr, i16, i64, i16, i64, ptr, i64, i32, i16, i64, i16, ptr, i16, i64, ptr, i64, i16, i32, i16, ptr, ptr, ptr, i16, i32, i16, i16, i32, ptr, i16, i32 }
%struct.slurm_conf_node = type { ptr, ptr, ptr, ptr, ptr, ptr, ptr, i32, i16, ptr, i16, i16, i16, i16, i16, i64, i64, ptr, i16, ptr, i32, ptr, i32 }

; Function Attrs: nounwind uwtable
define internal i32 @_build_node_callback(ptr noundef %0, ptr noundef %1, ptr noundef %2, ptr noundef %3, i16 noundef zeroext %4, i32 noundef %5, ptr noundef %6, ptr noundef %7) #0 {
  %9 = alloca i32, align 4
  %10 = alloca ptr, align 8
  %11 = alloca ptr, align 8
  %12 = alloca ptr, align 8
  %13 = alloca ptr, align 8
  %14 = alloca i16, align 2
  %15 = alloca i32, align 4
  %16 = alloca ptr, align 8
  %17 = alloca ptr, align 8
  %18 = alloca i32, align 4
  %19 = alloca ptr, align 8
  %20 = alloca i32, align 4
  store ptr %0, ptr %10, align 8
  store ptr %1, ptr %11, align 8
  store ptr %2, ptr %12, align 8
  store ptr %3, ptr %13, align 8
  store i16 %4, ptr %14, align 2
  store i32 %5, ptr %15, align 4
  store ptr %6, ptr %16, align 8
  store ptr %7, ptr %17, align 8
  call void @llvm.lifetime.start.p0(i64 4, ptr %18) #11
  store i32 0, ptr %18, align 4
  call void @llvm.lifetime.start.p0(i64 8, ptr %19) #11
  %21 = load ptr, ptr %17, align 8
  %22 = load ptr, ptr %10, align 8
  %23 = call i32 @create_node_record(ptr noundef %21, ptr noundef %22, ptr noundef %19)
  store i32 %23, ptr %18, align 4
  %24 = icmp ne i32 %23, 0
  br i1 %24, label %25, label %27

25:                                               ; preds = %8
  %26 = load i32, ptr %18, align 4
  store i32 %26, ptr %9, align 4
  store i32 1, ptr %20, align 4
  br label %74

27:                                               ; preds = %8
  %28 = load i32, ptr %15, align 4
  %29 = icmp ne i32 %28, -2
  br i1 %29, label %30, label %37

30:                                               ; preds = %27
  %31 = load i32, ptr %15, align 4
  %32 = icmp ne i32 %31, 0
  br i1 %32, label %33, label %37

33:                                               ; preds = %30
  %34 = load i32, ptr %15, align 4
  %35 = load ptr, ptr %19, align 8
  %36 = getelementptr inbounds nuw %struct.node_record, ptr %35, i32 0, i32 44
  store i32 %34, ptr %36, align 8
  br label %37

37:                                               ; preds = %33, %30, %27
  %38 = load ptr, ptr %19, align 8
  %39 = getelementptr inbounds nuw %struct.node_record, ptr %38, i32 0, i32 33
  store i64 0, ptr %39, align 8
  %40 = load ptr, ptr %12, align 8
  %41 = call ptr @xstrdup(ptr noundef %40)
  %42 = load ptr, ptr %19, align 8
  %43 = getelementptr inbounds nuw %struct.node_record, ptr %42, i32 0, i32 6
  store ptr %41, ptr %43, align 8
  %44 = load ptr, ptr %16, align 8
  %45 = getelementptr inbounds nuw %struct.slurm_conf_node, ptr %44, i32 0, i32 7
  %46 = load i32, ptr %45, align 8
  %47 = load ptr, ptr %19, align 8
  %48 = getelementptr inbounds nuw %struct.node_record, ptr %47, i32 0, i32 12
  store i32 %46, ptr %48, align 4
  %49 = load ptr, ptr %11, align 8
  %50 = call ptr @xstrdup(ptr noundef %49)
  %51 = load ptr, ptr %19, align 8
  %52 = getelementptr inbounds nuw %struct.node_record, ptr %51, i32 0, i32 40
  store ptr %50, ptr %52, align 8
  %53 = load ptr, ptr %13, align 8
  %54 = call ptr @xstrdup(ptr noundef %53)
  %55 = load ptr, ptr %19, align 8
  %56 = getelementptr inbounds nuw %struct.node_record, ptr %55, i32 0, i32 1
  store ptr %54, ptr %56, align 8
  %57 = load i16, ptr %14, align 2
  %58 = load ptr, ptr %19, align 8
  %59 = getelementptr inbounds nuw %struct.node_record, ptr %58, i32 0, i32 51
  store i16 %57, ptr %59, align 8
  %60 = load ptr, ptr %16, align 8
  %61 = getelementptr inbounds nuw %struct.slurm_conf_node, ptr %60, i32 0, i32 17
  %62 = load ptr, ptr %61, align 8
  %63 = call ptr @xstrdup(ptr noundef %62)
  %64 = load ptr, ptr %19, align 8
  %65 = getelementptr inbounds nuw %struct.node_record, ptr %64, i32 0, i32 55
  store ptr %63, ptr %65, align 8
  %66 = load ptr, ptr %19, align 8
  %67 = getelementptr inbounds nuw %struct.node_record, ptr %66, i32 0, i32 44
  %68 = load i32, ptr %67, align 8
  %69 = zext i32 %68 to i64
  %70 = or i64 %69, 67108864
  %71 = trunc i64 %70 to i32
  store i32 %71, ptr %67, align 8
  %72 = load ptr, ptr %19, align 8
  call void @slurm_conf_add_node(ptr noundef %72)
  %73 = load i32, ptr %18, align 4
  store i32 %73, ptr %9, align 4
  store i32 1, ptr %20, align 4
  br label %74

74:                                               ; preds = %37, %25
  call void @llvm.lifetime.end.p0(i64 8, ptr %19) #11
  call void @llvm.lifetime.end.p0(i64 4, ptr %18) #11
  %75 = load i32, ptr %9, align 4
  ret i32 %75
}