; Function Attrs: nounwind uwtable
define internal i32 @_build_node_callback(ptr noundef %0, ptr noundef %1, ptr noundef %2, ptr noundef %3, i16 noundef zeroext %4, i32 noundef %5, ptr noundef readonly captures(none) %6, ptr noundef %7) #0 {
  %9 = alloca ptr, align 8
  call void @llvm.lifetime.start.p0(i64 8, ptr nonnull %9) #18
  %10 = call i32 @create_node_record(ptr noundef %7, ptr noundef %0, ptr noundef nonnull %9) #18
  %.not = icmp eq i32 %10, 0
  br i1 %.not, label %11, label %39

11:                                               ; preds = %8
  switch i32 %5, label %12 [
    i32 -2, label %15
    i32 0, label %15
  ]

12:                                               ; preds = %11
  %13 = load ptr, ptr %9, align 8
  %14 = getelementptr inbounds nuw i8, ptr %13, i64 320
  store i32 %5, ptr %14, align 8
  br label %15

15:                                               ; preds = %11, %11, %12
  %16 = load ptr, ptr %9, align 8
  %17 = getelementptr inbounds nuw i8, ptr %16, i64 240
  store i64 0, ptr %17, align 8
  %18 = call ptr @xstrdup(ptr noundef %2) #18
  %19 = load ptr, ptr %9, align 8
  %20 = getelementptr inbounds nuw i8, ptr %19, i64 48
  store ptr %18, ptr %20, align 8
  %21 = getelementptr inbounds nuw i8, ptr %6, i64 56
  %22 = load i32, ptr %21, align 8
  %23 = getelementptr inbounds nuw i8, ptr %19, i64 84
  store i32 %22, ptr %23, align 4
  %24 = call ptr @xstrdup(ptr noundef %1) #18
  %25 = load ptr, ptr %9, align 8
  %26 = getelementptr inbounds nuw i8, ptr %25, i64 288
  store ptr %24, ptr %26, align 8
  %27 = call ptr @xstrdup(ptr noundef %3) #18
  %28 = load ptr, ptr %9, align 8
  %29 = getelementptr inbounds nuw i8, ptr %28, i64 8
  store ptr %27, ptr %29, align 8
  %30 = getelementptr inbounds nuw i8, ptr %28, i64 352
  store i16 %4, ptr %30, align 8
  %31 = getelementptr inbounds nuw i8, ptr %6, i64 104
  %32 = load ptr, ptr %31, align 8
  %33 = call ptr @xstrdup(ptr noundef %32) #18
  %34 = load ptr, ptr %9, align 8
  %35 = getelementptr inbounds nuw i8, ptr %34, i64 384
  store ptr %33, ptr %35, align 8
  %36 = getelementptr inbounds nuw i8, ptr %34, i64 320
  %37 = load i32, ptr %36, align 8
  %38 = or i32 %37, 67108864
  store i32 %38, ptr %36, align 8
  call void @slurm_conf_add_node(ptr noundef %34) #18
  br label %39

39:                                               ; preds = %8, %15
  call void @llvm.lifetime.end.p0(i64 8, ptr nonnull %9) #18
  ret i32 %10
}